target datalayout = "e-m:e-p270:32:32-p271:32:32-p272:64:64-i64:64-i128:128-f80:128-n8:16:32:64-S128"
target triple = "x86_64-pc-linux-gnu"

%struct.Cnf_Dat_t_ = type { ptr, i32, i32, i32, ptr, ptr, ptr, ptr, ptr, ptr }

; Function Attrs: nounwind uwtable
define void @Cnf_SpecialDataLift(ptr noundef %0, i32 noundef %1, i32 noundef %2, i32 noundef %3) #0 {
  %5 = alloca ptr, align 8
  %6 = alloca i32, align 4
  %7 = alloca i32, align 4
  %8 = alloca i32, align 4
  %9 = alloca i32, align 4
  %10 = alloca i32, align 4
  store ptr %0, ptr %5, align 8, !tbaa !80
  store i32 %1, ptr %6, align 4, !tbaa !8
  store i32 %2, ptr %7, align 4, !tbaa !8
  store i32 %3, ptr %8, align 4, !tbaa !8
  call void @llvm.lifetime.start.p0(i64 4, ptr %9) #14
  call void @llvm.lifetime.start.p0(i64 4, ptr %10) #14
  store i32 0, ptr %9, align 4, !tbaa !8
  br label %11

11:                                               ; preds = %62, %4
  %12 = load i32, ptr %9, align 4, !tbaa !8
  %13 = load ptr, ptr %5, align 8, !tbaa !80
  %14 = getelementptr inbounds nuw %struct.Cnf_Dat_t_, ptr %13, i32 0, i32 2
  %15 = load i32, ptr %14, align 4, !tbaa !130
  %16 = icmp slt i32 %12, %15
  br i1 %16, label %17, label %65

17:                                               ; preds = %11
  %18 = load ptr, ptr %5, align 8, !tbaa !80
  %19 = getelementptr inbounds nuw %struct.Cnf_Dat_t_, ptr %18, i32 0, i32 4
  %20 = load ptr, ptr %19, align 8, !tbaa !131
  %21 = getelementptr inbounds ptr, ptr %20, i64 0
  %22 = load ptr, ptr %21, align 8, !tbaa !22
  %23 = load i32, ptr %9, align 4, !tbaa !8
  %24 = sext i32 %23 to i64
  %25 = getelementptr inbounds i32, ptr %22, i64 %24
  %26 = load i32, ptr %25, align 4, !tbaa !8
  %27 = sdiv i32 %26, 2
  store i32 %27, ptr %10, align 4, !tbaa !8
  %28 = load i32, ptr %10, align 4, !tbaa !8
  %29 = load i32, ptr %7, align 4, !tbaa !8
  %30 = icmp slt i32 %28, %29
  br i1 %30, label %35, label %31

31:                                               ; preds = %17
  %32 = load i32, ptr %10, align 4, !tbaa !8
  %33 = load i32, ptr %8, align 4, !tbaa !8
  %34 = icmp sge i32 %32, %33
  br i1 %34, label %35, label %48

35:                                               ; preds = %31, %17
  %36 = load i32, ptr %6, align 4, !tbaa !8
  %37 = mul nsw i32 2, %36
  %38 = load ptr, ptr %5, align 8, !tbaa !80
  %39 = getelementptr inbounds nuw %struct.Cnf_Dat_t_, ptr %38, i32 0, i32 4
  %40 = load ptr, ptr %39, align 8, !tbaa !131
  %41 = getelementptr inbounds ptr, ptr %40, i64 0
  %42 = load ptr, ptr %41, align 8, !tbaa !22
  %43 = load i32, ptr %9, align 4, !tbaa !8
  %44 = sext i32 %43 to i64
  %45 = getelementptr inbounds i32, ptr %42, i64 %44
  %46 = load i32, ptr %45, align 4, !tbaa !8
  %47 = add nsw i32 %46, %37
  store i32 %47, ptr %45, align 4, !tbaa !8
  br label %61

48:                                               ; preds = %31
  %49 = load i32, ptr %7, align 4, !tbaa !8
  %50 = mul nsw i32 2, %49
  %51 = load ptr, ptr %5, align 8, !tbaa !80
  %52 = getelementptr inbounds nuw %struct.Cnf_Dat_t_, ptr %51, i32 0, i32 4
  %53 = load ptr, ptr %52, align 8, !tbaa !131
  %54 = getelementptr inbounds ptr, ptr %53, i64 0
  %55 = load ptr, ptr %54, align 8, !tbaa !22
  %56 = load i32, ptr %9, align 4, !tbaa !8
  %57 = sext i32 %56 to i64
  %58 = getelementptr inbounds i32, ptr %55, i64 %57
  %59 = load i32, ptr %58, align 4, !tbaa !8
  %60 = sub nsw i32 %59, %50
  store i32 %60, ptr %58, align 4, !tbaa !8
  br label %61

61:                                               ; preds = %48, %35
  br label %62

62:                                               ; preds = %61
  %63 = load i32, ptr %9, align 4, !tbaa !8
  %64 = add nsw i32 %63, 1
  store i32 %64, ptr %9, align 4, !tbaa !8
  br label %11, !llvm.loop !132

65:                                               ; preds = %11
  call void @llvm.lifetime.end.p0(i64 4, ptr %10) #14
  call void @llvm.lifetime.end.p0(i64 4, ptr %9) #14
  ret void
}