; Function Attrs: nofree norecurse nosync nounwind memory(readwrite, inaccessiblemem: none) uwtable
define void @Cnf_SpecialDataLift(ptr noundef readonly captures(none) %0, i32 noundef %1, i32 noundef %2, i32 noundef %3) local_unnamed_addr #11 {
  %5 = getelementptr inbounds nuw i8, ptr %0, i64 12
  %6 = load i32, ptr %5, align 4, !tbaa !121
  %7 = icmp sgt i32 %6, 0
  br i1 %7, label %.lr.ph, label %._crit_edge

.lr.ph:                                           ; preds = %4
  %8 = getelementptr inbounds nuw i8, ptr %0, i64 24
  %9 = load ptr, ptr %8, align 8, !tbaa !122
  %10 = load ptr, ptr %9, align 8, !tbaa !123
  %11 = shl nsw i32 %1, 1
  %.neg = mul i32 %2, -2
  br label %12

12:                                               ; preds = %.lr.ph, %12
  %indvars.iv = phi i64 [ 0, %.lr.ph ], [ %indvars.iv.next, %12 ]
  %13 = getelementptr inbounds nuw i32, ptr %10, i64 %indvars.iv
  %14 = load i32, ptr %13, align 4, !tbaa !12
  %15 = sdiv i32 %14, 2
  %16 = icmp sge i32 %15, %2
  %.not = icmp slt i32 %15, %3
  %or.cond = and i1 %16, %.not
  %storemerge.p = select i1 %or.cond, i32 %.neg, i32 %11
  %storemerge = add i32 %14, %storemerge.p
  store i32 %storemerge, ptr %13, align 4, !tbaa !12
  %indvars.iv.next = add nuw nsw i64 %indvars.iv, 1
  %17 = load i32, ptr %5, align 4, !tbaa !121
  %18 = sext i32 %17 to i64
  %19 = icmp slt i64 %indvars.iv.next, %18
  br i1 %19, label %12, label %._crit_edge, !llvm.loop !124

._crit_edge:                                      ; preds = %12, %4
  ret void
}